target datalayout = "e-m:e-p270:32:32-p271:32:32-p272:64:64-i64:64-i128:128-f80:128-n8:16:32:64-S128"
target triple = "x86_64-pc-linux-gnu"

%"class.spacer::convex_closure" = type { %"struct.spacer::convex_closure::stats", ptr, %class.arith_util, %class.bv_util, i32, i8, i32, %"class.spacer::spacer_matrix", %class.ref_vector, %class.vector.1, %"class.spacer::spacer_arith_kernel", %class.ref_vector, %class.ref_vector, %class.ref_vector }
%"struct.spacer::convex_closure::stats" = type { i32, i32, %class.stopwatch }
%class.stopwatch = type <{ %"class.std::chrono::time_point", %"class.std::chrono::duration", i8, [7 x i8] }>
%"class.std::chrono::time_point" = type { %"class.std::chrono::duration" }
%"class.std::chrono::duration" = type { i64 }
%class.arith_util = type { ptr, ptr }
%class.bv_util = type { %class.bv_recognizers, ptr, ptr }
%class.bv_recognizers = type { i32 }
%"class.spacer::spacer_matrix" = type { i32, i32, %class.vector }
%class.vector = type { ptr }
%class.vector.1 = type { ptr }
%"class.spacer::spacer_arith_kernel" = type { ptr, %"struct.spacer::spacer_arith_kernel::stats", ptr, %"class.spacer::spacer_matrix", %class.vector.2, %class.scoped_ptr }
%"struct.spacer::spacer_arith_kernel::stats" = type { i32 }
%class.vector.2 = type { ptr }
%class.scoped_ptr = type { ptr }
%class.ref_vector = type { %class.ref_vector_core }
%class.ref_vector_core = type { %class.ref_manager_wrapper, %class.ptr_vector }
%class.ref_manager_wrapper = type { ptr }
%class.ptr_vector = type { %class.vector.0 }
%class.vector.0 = type { ptr }
%class.ref_buffer_core = type { %class.ref_manager_wrapper, %class.ptr_buffer }
%class.ptr_buffer = type { %class.buffer }
%class.buffer = type { ptr, i32, i32, [128 x i8] }
%class.obj_ref = type { ptr, ptr }
%class.ast = type { i32, i32, i32, i32 }

@.str.5 = private unnamed_addr constant [124 x i8] c"generated/home/dtcxzyw/WorkSpace/Projects/compilers/llvm-opt-benchmark/bench/z3/z3/src/muz/spacer/spacer_convex_closure.cpp\00", align 1
@.str.6 = private unnamed_addr constant [29 x i8] c"UNEXPECTED CODE WAS REACHED.\00", align 1

; Function Attrs: mustprogress nounwind uwtable
define linkonce_odr hidden noundef i32 @_ZNK3ast8get_kindEv(ptr noundef nonnull align 4 dereferenceable(16) %0) #5 comdat align 2 {
  %2 = alloca ptr, align 8
  store ptr %0, ptr %2, align 8, !tbaa !160
  %3 = load ptr, ptr %2, align 8
  %4 = getelementptr inbounds nuw %class.ast, ptr %3, i32 0, i32 1
  %5 = load i32, ptr %4, align 4
  %6 = and i32 %5, 65535
  ret i32 %6
}

; Function Attrs: inlinehint mustprogress nounwind uwtable
define linkonce_odr hidden noundef ptr @_Z6to_appP3ast(ptr noundef %0) #6 comdat {
  %2 = alloca ptr, align 8
  store ptr %0, ptr %2, align 8, !tbaa !160
  %3 = load ptr, ptr %2, align 8, !tbaa !160
  ret ptr %3
}

; Function Attrs: inlinehint mustprogress uwtable
define linkonce_odr hidden noundef zeroext i1 @_Z6is_appPK3ast(ptr noundef %0) #8 comdat {
  %2 = alloca ptr, align 8
  store ptr %0, ptr %2, align 8, !tbaa !160
  %3 = load ptr, ptr %2, align 8, !tbaa !160
  %4 = call noundef i32 @_ZNK3ast8get_kindEv(ptr noundef nonnull align 4 dereferenceable(16) %3)
  %5 = icmp eq i32 %4, 0
  ret i1 %5
}

; Function Attrs: mustprogress nounwind uwtable
define linkonce_odr hidden noundef ptr @_ZNK6bufferIP4exprLb0ELj16EE4dataEv(ptr noundef nonnull align 8 dereferenceable(144) %0) #5 comdat align 2 {
  %2 = alloca ptr, align 8
  store ptr %0, ptr %2, align 8, !tbaa !198
  %3 = load ptr, ptr %2, align 8
  %4 = getelementptr inbounds nuw %class.buffer, ptr %3, i32 0, i32 0
  %5 = load ptr, ptr %4, align 8, !tbaa !200
  ret ptr %5
}

; Function Attrs: mustprogress nounwind uwtable
define linkonce_odr hidden noundef nonnull align 8 dereferenceable(8) ptr @_ZNK6bufferIP4exprLb0ELj16EEixEj(ptr noundef nonnull align 8 dereferenceable(144) %0, i32 noundef %1) #5 comdat align 2 {
  %3 = alloca ptr, align 8
  %4 = alloca i32, align 4
  store ptr %0, ptr %3, align 8, !tbaa !198
  store i32 %1, ptr %4, align 4, !tbaa !61
  %5 = load ptr, ptr %3, align 8
  %6 = getelementptr inbounds nuw %class.buffer, ptr %5, i32 0, i32 0
  %7 = load ptr, ptr %6, align 8, !tbaa !200
  %8 = load i32, ptr %4, align 4, !tbaa !61
  %9 = zext i32 %8 to i64
  %10 = getelementptr inbounds nuw ptr, ptr %7, i64 %9
  ret ptr %10
}

; Function Attrs: mustprogress nounwind uwtable
define linkonce_odr hidden noundef i32 @_ZNK6bufferIP4exprLb0ELj16EE4sizeEv(ptr noundef nonnull align 8 dereferenceable(144) %0) #5 comdat align 2 {
  %2 = alloca ptr, align 8
  store ptr %0, ptr %2, align 8, !tbaa !198
  %3 = load ptr, ptr %2, align 8
  %4 = getelementptr inbounds nuw %class.buffer, ptr %3, i32 0, i32 1
  %5 = load i32, ptr %4, align 8, !tbaa !202
  ret i32 %5
}

; Function Attrs: mustprogress uwtable
define linkonce_odr hidden noundef ptr @_ZNK10arith_util6mk_addEjPKP4expr(ptr noundef nonnull align 8 dereferenceable(16) %0, i32 noundef %1, ptr noundef %2) #4 comdat align 2 {
  %4 = alloca ptr, align 8
  %5 = alloca i32, align 4
  %6 = alloca ptr, align 8
  store ptr %0, ptr %4, align 8, !tbaa !111
  store i32 %1, ptr %5, align 4, !tbaa !61
  store ptr %2, ptr %6, align 8, !tbaa !104
  %7 = load ptr, ptr %4, align 8
  %8 = load i32, ptr %5, align 4, !tbaa !61
  %9 = icmp eq i32 %8, 1
  br i1 %9, label %10, label %20

10:                                               ; preds = %3
  %11 = load ptr, ptr %6, align 8, !tbaa !104
  %12 = getelementptr inbounds ptr, ptr %11, i64 0
  %13 = load ptr, ptr %12, align 8, !tbaa !94
  %14 = call noundef zeroext i1 @_Z6is_appPK3ast(ptr noundef %13)
  br i1 %14, label %15, label %20

15:                                               ; preds = %10
  %16 = load ptr, ptr %6, align 8, !tbaa !104
  %17 = getelementptr inbounds ptr, ptr %16, i64 0
  %18 = load ptr, ptr %17, align 8, !tbaa !94
  %19 = call noundef ptr @_Z6to_appP3ast(ptr noundef %18)
  br label %26

20:                                               ; preds = %10, %3
  %21 = getelementptr inbounds nuw %class.arith_util, ptr %7, i32 0, i32 0
  %22 = load ptr, ptr %21, align 8, !tbaa !113
  %23 = load i32, ptr %5, align 4, !tbaa !61
  %24 = load ptr, ptr %6, align 8, !tbaa !104
  %25 = call noundef ptr @_ZN11ast_manager6mk_appEiijPKP4expr(ptr noundef nonnull align 8 dereferenceable(976) %22, i32 noundef 5, i32 noundef 6, i32 noundef %23, ptr noundef %24)
  br label %26

26:                                               ; preds = %20, %15
  %27 = phi ptr [ %19, %15 ], [ %25, %20 ]
  ret ptr %27
}

; Function Attrs: mustprogress uwtable
define linkonce_odr hidden noundef ptr @_ZNK15ref_buffer_coreI4expr19ref_manager_wrapperIS0_11ast_managerELj16EE4dataEv(ptr noundef nonnull align 8 dereferenceable(152) %0) #4 comdat align 2 {
  %2 = alloca ptr, align 8
  store ptr %0, ptr %2, align 8, !tbaa !100
  %3 = load ptr, ptr %2, align 8
  %4 = getelementptr inbounds nuw %class.ref_buffer_core, ptr %3, i32 0, i32 1
  %5 = call noundef ptr @_ZNK6bufferIP4exprLb0ELj16EE4dataEv(ptr noundef nonnull align 8 dereferenceable(144) %4)
  ret ptr %5
}

; Function Attrs: mustprogress uwtable
define linkonce_odr hidden noundef ptr @_ZNK15ref_buffer_coreI4expr19ref_manager_wrapperIS0_11ast_managerELj16EEixEj(ptr noundef nonnull align 8 dereferenceable(152) %0, i32 noundef %1) #4 comdat align 2 {
  %3 = alloca ptr, align 8
  %4 = alloca i32, align 4
  store ptr %0, ptr %3, align 8, !tbaa !100
  store i32 %1, ptr %4, align 4, !tbaa !61
  %5 = load ptr, ptr %3, align 8
  %6 = getelementptr inbounds nuw %class.ref_buffer_core, ptr %5, i32 0, i32 1
  %7 = load i32, ptr %4, align 4, !tbaa !61
  %8 = call noundef nonnull align 8 dereferenceable(8) ptr @_ZNK6bufferIP4exprLb0ELj16EEixEj(ptr noundef nonnull align 8 dereferenceable(144) %6, i32 noundef %7)
  %9 = load ptr, ptr %8, align 8, !tbaa !94
  ret ptr %9
}

; Function Attrs: mustprogress nounwind uwtable
define linkonce_odr hidden noundef i32 @_ZNK15ref_buffer_coreI4expr19ref_manager_wrapperIS0_11ast_managerELj16EE4sizeEv(ptr noundef nonnull align 8 dereferenceable(152) %0) #5 comdat align 2 {
  %2 = alloca ptr, align 8
  store ptr %0, ptr %2, align 8, !tbaa !100
  %3 = load ptr, ptr %2, align 8
  %4 = getelementptr inbounds nuw %class.ref_buffer_core, ptr %3, i32 0, i32 1
  %5 = call noundef i32 @_ZNK6bufferIP4exprLb0ELj16EE4sizeEv(ptr noundef nonnull align 8 dereferenceable(144) %4)
  ret i32 %5
}

; Function Attrs: mustprogress nounwind uwtable
define linkonce_odr hidden void @_ZN7obj_refI4expr11ast_managerEC2ERS1_(ptr noundef nonnull align 8 dereferenceable(16) %0, ptr noundef nonnull align 8 dereferenceable(976) %1) unnamed_addr #5 comdat align 2 {
  %3 = alloca ptr, align 8
  %4 = alloca ptr, align 8
  store ptr %0, ptr %3, align 8, !tbaa !81
  store ptr %1, ptr %4, align 8, !tbaa !8
  %5 = load ptr, ptr %3, align 8
  %6 = getelementptr inbounds nuw %class.obj_ref, ptr %5, i32 0, i32 0
  store ptr null, ptr %6, align 8, !tbaa !87
  %7 = getelementptr inbounds nuw %class.obj_ref, ptr %5, i32 0, i32 1
  %8 = load ptr, ptr %4, align 8, !tbaa !8
  store ptr %8, ptr %7, align 8, !tbaa !8
  ret void
}

; Function Attrs: mustprogress uwtable
define hidden noundef ptr @_ZN6spacer14convex_closure6mk_addERK10ref_bufferI4expr11ast_managerLj16EE(ptr noundef nonnull align 8 dereferenceable(240) %0, ptr noundef nonnull align 8 dereferenceable(152) %1) #4 align 2 personality ptr @__gxx_personality_v0 {
  %3 = alloca ptr, align 8
  %4 = alloca ptr, align 8
  %5 = alloca ptr, align 8
  %6 = alloca %class.obj_ref, align 8
  %7 = alloca ptr, align 8
  %8 = alloca i32, align 4
  %9 = alloca i32, align 4
  store ptr %0, ptr %4, align 8, !tbaa !3
  store ptr %1, ptr %5, align 8, !tbaa !85
  %10 = load ptr, ptr %4, align 8
  call void @llvm.lifetime.start.p0(i64 16, ptr %6) #3
  %11 = getelementptr inbounds nuw %"class.spacer::convex_closure", ptr %10, i32 0, i32 1
  %12 = load ptr, ptr %11, align 8, !tbaa !10
  call void @_ZN7obj_refI4expr11ast_managerEC2ERS1_(ptr noundef nonnull align 8 dereferenceable(16) %6, ptr noundef nonnull align 8 dereferenceable(976) %12)
  %13 = load ptr, ptr %5, align 8, !tbaa !85
  %14 = invoke noundef i32 @_ZNK15ref_buffer_coreI4expr19ref_manager_wrapperIS0_11ast_managerELj16EE4sizeEv(ptr noundef nonnull align 8 dereferenceable(152) %13)
          to label %15 unwind label %21

15:                                               ; preds = %2
  %16 = icmp eq i32 %14, 1
  br i1 %16, label %17, label %25

17:                                               ; preds = %15
  %18 = load ptr, ptr %5, align 8, !tbaa !85
  %19 = invoke noundef ptr @_ZNK15ref_buffer_coreI4expr19ref_manager_wrapperIS0_11ast_managerELj16EEixEj(ptr noundef nonnull align 8 dereferenceable(152) %18, i32 noundef 0)
          to label %20 unwind label %21

20:                                               ; preds = %17
  store ptr %19, ptr %3, align 8
  store i32 1, ptr %9, align 4
  br label %44

21:                                               ; preds = %42, %41, %37, %34, %30, %25, %17, %2
  %22 = landingpad { ptr, i32 }
          cleanup
  %23 = extractvalue { ptr, i32 } %22, 0
  store ptr %23, ptr %7, align 8
  %24 = extractvalue { ptr, i32 } %22, 1
  store i32 %24, ptr %8, align 4
  call void @_ZN7obj_refI4expr11ast_managerED2Ev(ptr noundef nonnull align 8 dereferenceable(16) %6) #3
  call void @llvm.lifetime.end.p0(i64 16, ptr %6) #3
  br label %46

25:                                               ; preds = %15
  %26 = load ptr, ptr %5, align 8, !tbaa !85
  %27 = invoke noundef i32 @_ZNK15ref_buffer_coreI4expr19ref_manager_wrapperIS0_11ast_managerELj16EE4sizeEv(ptr noundef nonnull align 8 dereferenceable(152) %26)
          to label %28 unwind label %21

28:                                               ; preds = %25
  %29 = icmp ugt i32 %27, 1
  br i1 %29, label %30, label %40

30:                                               ; preds = %28
  %31 = getelementptr inbounds nuw %"class.spacer::convex_closure", ptr %10, i32 0, i32 2
  %32 = load ptr, ptr %5, align 8, !tbaa !85
  %33 = invoke noundef i32 @_ZNK15ref_buffer_coreI4expr19ref_manager_wrapperIS0_11ast_managerELj16EE4sizeEv(ptr noundef nonnull align 8 dereferenceable(152) %32)
          to label %34 unwind label %21

34:                                               ; preds = %30
  %35 = load ptr, ptr %5, align 8, !tbaa !85
  %36 = invoke noundef ptr @_ZNK15ref_buffer_coreI4expr19ref_manager_wrapperIS0_11ast_managerELj16EE4dataEv(ptr noundef nonnull align 8 dereferenceable(152) %35)
          to label %37 unwind label %21

37:                                               ; preds = %34
  %38 = invoke noundef ptr @_ZNK10arith_util6mk_addEjPKP4expr(ptr noundef nonnull align 8 dereferenceable(16) %31, i32 noundef %33, ptr noundef %36)
          to label %39 unwind label %21

39:                                               ; preds = %37
  store ptr %38, ptr %3, align 8
  store i32 1, ptr %9, align 4
  br label %44

40:                                               ; preds = %28
  br label %41

41:                                               ; preds = %40
  invoke void @_Z26notify_assertion_violationPKciS0_(ptr noundef @.str.5, i32 noundef 185, ptr noundef @.str.6)
          to label %42 unwind label %21

42:                                               ; preds = %41
  invoke void @_Z18invoke_exit_actionj(i32 noundef 114)
          to label %43 unwind label %21

43:                                               ; preds = %42
  store ptr null, ptr %3, align 8
  store i32 1, ptr %9, align 4
  br label %44

44:                                               ; preds = %43, %39, %20
  call void @_ZN7obj_refI4expr11ast_managerED2Ev(ptr noundef nonnull align 8 dereferenceable(16) %6) #3
  call void @llvm.lifetime.end.p0(i64 16, ptr %6) #3
  %45 = load ptr, ptr %3, align 8
  ret ptr %45

46:                                               ; preds = %21
  %47 = load ptr, ptr %7, align 8
  %48 = load i32, ptr %8, align 4
  %49 = insertvalue { ptr, i32 } poison, ptr %47, 0
  %50 = insertvalue { ptr, i32 } %49, i32 %48, 1
  resume { ptr, i32 } %50
}