; Function Attrs: mustprogress uwtable
define hidden noundef ptr @_ZN6spacer14convex_closure6mk_addERK10ref_bufferI4expr11ast_managerLj16EE(ptr noundef nonnull readonly align 8 captures(none) dereferenceable(240) %0, ptr noundef nonnull readonly align 8 captures(none) dereferenceable(152) %1) local_unnamed_addr #3 align 2 personality ptr @__gxx_personality_v0 {
  %3 = alloca %class.obj_ref, align 8
  call void @llvm.lifetime.start.p0(i64 16, ptr nonnull %3) #21
  %4 = getelementptr inbounds nuw i8, ptr %0, i64 32
  %5 = load ptr, ptr %4, align 8, !tbaa !8
  store ptr null, ptr %3, align 8, !tbaa !79
  %6 = getelementptr inbounds nuw i8, ptr %3, i64 8
  store ptr %5, ptr %6, align 8, !tbaa !3
  %7 = getelementptr inbounds nuw i8, ptr %1, i64 16
  %8 = load i32, ptr %7, align 8, !tbaa !77
  switch i32 %8, label %15 [
    i32 1, label %9
    i32 0, label %21
  ]

9:                                                ; preds = %2
  %10 = getelementptr inbounds nuw i8, ptr %1, i64 8
  %11 = load ptr, ptr %10, align 8, !tbaa !75
  %12 = load ptr, ptr %11, align 8, !tbaa !51
  br label %_ZN7obj_refI4expr11ast_managerED2Ev.exit

13:                                               ; preds = %15, %22, %21
  %14 = landingpad { ptr, i32 }
          cleanup
  call void @_ZN7obj_refI4expr11ast_managerED2Ev(ptr noundef nonnull align 8 dereferenceable(16) %3) #21
  call void @llvm.lifetime.end.p0(i64 16, ptr nonnull %3) #21
  resume { ptr, i32 } %14

15:                                               ; preds = %2
  %16 = getelementptr inbounds nuw i8, ptr %1, i64 8
  %17 = load ptr, ptr %16, align 8, !tbaa !75
  %18 = getelementptr inbounds nuw i8, ptr %0, i64 40
  %19 = load ptr, ptr %18, align 8, !tbaa !104
  %20 = invoke noundef ptr @_ZN11ast_manager6mk_appEiijPKP4expr(ptr noundef nonnull align 8 dereferenceable(976) %19, i32 noundef 5, i32 noundef 6, i32 noundef %8, ptr noundef %17)
          to label %_ZN7obj_refI4expr11ast_managerED2Ev.exit unwind label %13

21:                                               ; preds = %2
  invoke void @_Z26notify_assertion_violationPKciS0_(ptr noundef nonnull @.str.5, i32 noundef 185, ptr noundef nonnull @.str.6)
          to label %22 unwind label %13

22:                                               ; preds = %21
  invoke void @_Z18invoke_exit_actionj(i32 noundef 114)
          to label %_ZN7obj_refI4expr11ast_managerED2Ev.exit unwind label %13

_ZN7obj_refI4expr11ast_managerED2Ev.exit:         ; preds = %22, %9, %15
  %.0 = phi ptr [ %12, %9 ], [ null, %22 ], [ %20, %15 ]
  call void @llvm.lifetime.end.p0(i64 16, ptr nonnull %3) #21
  ret ptr %.0
}